target datalayout = "e-m:e-p270:32:32-p271:32:32-p272:64:64-i64:64-i128:128-f80:128-n8:16:32:64-S128"
target triple = "x86_64-pc-linux-gnu"

%struct._zend_phar_globals = type { %struct._zend_array, %struct._zend_array, ptr, %struct._zend_array, i32, i32, ptr, i32, i32, i32, i32, i8, i8, i8, i32, i32, i32, i32, ptr, ptr, ptr, ptr, ptr, ptr, ptr, ptr, ptr, ptr, ptr, ptr, ptr, ptr, ptr, ptr, ptr, ptr, ptr, ptr, ptr, ptr, ptr, i32, i32, ptr, i32, ptr, i32, ptr, i32, ptr, %struct._zend_array }
%struct._zend_array = type { %struct._zend_refcounted_h, %union.anon.4, i32, %union.anon.6, i32, i32, i32, i32, i64, ptr }
%struct._zend_refcounted_h = type { i32, %union.anon.3 }
%union.anon.3 = type { i32 }
%union.anon.4 = type { i32 }
%union.anon.6 = type { ptr }
%struct._zval_struct = type { %union._zend_value, %union.anon, %union.anon.2 }
%union._zend_value = type { i64 }
%union.anon = type { i32 }
%union.anon.2 = type { i32 }
%struct._phar_metadata_tracker = type { %struct._zval_struct, ptr }
%struct._phar_archive_data = type { ptr, i32, ptr, i32, ptr, i32, [12 x i8], i64, i64, %struct._zend_array, %struct._zend_array, %struct._zend_array, i32, i32, i32, ptr, ptr, i32, i32, i32, ptr, %struct._phar_metadata_tracker, i32, i16 }
%struct._phar_entry_fp = type { ptr, ptr, ptr }

@.str = private unnamed_addr constant [3 x i8] c"rb\00", align 1
@phar_globals = external global %struct._zend_phar_globals, align 8

; Function Attrs: nounwind uwtable
define internal void @phar_set_pharfp(ptr noundef %0, ptr noundef %1) #0 {
  %3 = alloca ptr, align 8
  %4 = alloca ptr, align 8
  store ptr %0, ptr %3, align 8
  store ptr %1, ptr %4, align 8
  %5 = load ptr, ptr %3, align 8
  %6 = getelementptr inbounds %struct._phar_archive_data, ptr %5, i32 0, i32 23
  %7 = load i16, ptr %6, align 4
  %8 = lshr i16 %7, 8
  %9 = and i16 %8, 1
  %10 = zext i16 %9 to i32
  %11 = icmp ne i32 %10, 0
  br i1 %11, label %16, label %12

12:                                               ; preds = %2
  %13 = load ptr, ptr %4, align 8
  %14 = load ptr, ptr %3, align 8
  %15 = getelementptr inbounds %struct._phar_archive_data, ptr %14, i32 0, i32 15
  store ptr %13, ptr %15, align 8
  br label %25

16:                                               ; preds = %2
  %17 = load ptr, ptr %4, align 8
  %18 = load ptr, ptr getelementptr inbounds (%struct._zend_phar_globals, ptr @phar_globals, i32 0, i32 2), align 8
  %19 = load ptr, ptr %3, align 8
  %20 = getelementptr inbounds %struct._phar_archive_data, ptr %19, i32 0, i32 22
  %21 = load i32, ptr %20, align 8
  %22 = zext i32 %21 to i64
  %23 = getelementptr inbounds %struct._phar_entry_fp, ptr %18, i64 %22
  %24 = getelementptr inbounds %struct._phar_entry_fp, ptr %23, i32 0, i32 0
  store ptr %17, ptr %24, align 8
  br label %25

25:                                               ; preds = %16, %12
  ret void
}

; Function Attrs: nounwind uwtable
define internal ptr @phar_get_pharfp(ptr noundef %0) #0 {
  %2 = alloca ptr, align 8
  %3 = alloca ptr, align 8
  store ptr %0, ptr %3, align 8
  %4 = load ptr, ptr %3, align 8
  %5 = getelementptr inbounds %struct._phar_archive_data, ptr %4, i32 0, i32 23
  %6 = load i16, ptr %5, align 4
  %7 = lshr i16 %6, 8
  %8 = and i16 %7, 1
  %9 = zext i16 %8 to i32
  %10 = icmp ne i32 %9, 0
  br i1 %10, label %15, label %11

11:                                               ; preds = %1
  %12 = load ptr, ptr %3, align 8
  %13 = getelementptr inbounds %struct._phar_archive_data, ptr %12, i32 0, i32 15
  %14 = load ptr, ptr %13, align 8
  store ptr %14, ptr %2, align 8
  br label %24

15:                                               ; preds = %1
  %16 = load ptr, ptr getelementptr inbounds (%struct._zend_phar_globals, ptr @phar_globals, i32 0, i32 2), align 8
  %17 = load ptr, ptr %3, align 8
  %18 = getelementptr inbounds %struct._phar_archive_data, ptr %17, i32 0, i32 22
  %19 = load i32, ptr %18, align 8
  %20 = zext i32 %19 to i64
  %21 = getelementptr inbounds %struct._phar_entry_fp, ptr %16, i64 %20
  %22 = getelementptr inbounds %struct._phar_entry_fp, ptr %21, i32 0, i32 0
  %23 = load ptr, ptr %22, align 8
  store ptr %23, ptr %2, align 8
  br label %24

24:                                               ; preds = %15, %11
  %25 = load ptr, ptr %2, align 8
  ret ptr %25
}

; Function Attrs: nounwind uwtable
define hidden i32 @phar_open_archive_fp(ptr noundef %0) #0 {
  %2 = alloca i32, align 4
  %3 = alloca ptr, align 8
  store ptr %0, ptr %3, align 8
  %4 = load ptr, ptr %3, align 8
  %5 = call ptr @phar_get_pharfp(ptr noundef %4)
  %6 = icmp ne ptr %5, null
  br i1 %6, label %7, label %8

7:                                                ; preds = %1
  store i32 0, ptr %2, align 4
  br label %26

8:                                                ; preds = %1
  %9 = load ptr, ptr %3, align 8
  %10 = getelementptr inbounds %struct._phar_archive_data, ptr %9, i32 0, i32 0
  %11 = load ptr, ptr %10, align 8
  %12 = call i32 @php_check_open_basedir(ptr noundef %11)
  %13 = icmp ne i32 %12, 0
  br i1 %13, label %14, label %15

14:                                               ; preds = %8
  store i32 -1, ptr %2, align 4
  br label %26

15:                                               ; preds = %8
  %16 = load ptr, ptr %3, align 8
  %17 = load ptr, ptr %3, align 8
  %18 = getelementptr inbounds %struct._phar_archive_data, ptr %17, i32 0, i32 0
  %19 = load ptr, ptr %18, align 8
  %20 = call ptr @_php_stream_open_wrapper_ex(ptr noundef %19, ptr noundef @.str, i32 noundef 18, ptr noundef null, ptr noundef null)
  call void @phar_set_pharfp(ptr noundef %16, ptr noundef %20)
  %21 = load ptr, ptr %3, align 8
  %22 = call ptr @phar_get_pharfp(ptr noundef %21)
  %23 = icmp ne ptr %22, null
  br i1 %23, label %25, label %24

24:                                               ; preds = %15
  store i32 -1, ptr %2, align 4
  br label %26

25:                                               ; preds = %15
  store i32 0, ptr %2, align 4
  br label %26

26:                                               ; preds = %25, %24, %14, %7
  %27 = load i32, ptr %2, align 4
  ret i32 %27
}