; Function Attrs: nounwind uwtable
define hidden i32 @phar_open_archive_fp(ptr nocapture noundef %0) local_unnamed_addr #0 {
  %2 = getelementptr inbounds i8, ptr %0, i64 324
  %3 = load i16, ptr %2, align 4
  %4 = and i16 %3, 256
  %.not.i = icmp eq i16 %4, 0
  br i1 %.not.i, label %5, label %7

5:                                                ; preds = %1
  %6 = getelementptr inbounds i8, ptr %0, i64 256
  br label %phar_get_pharfp.exit

7:                                                ; preds = %1
  %8 = load ptr, ptr getelementptr inbounds (%struct._zend_phar_globals, ptr @phar_globals, i64 0, i32 2), align 8
  %9 = getelementptr inbounds i8, ptr %0, i64 320
  %10 = load i32, ptr %9, align 8
  %11 = zext i32 %10 to i64
  %12 = getelementptr inbounds %struct._phar_entry_fp, ptr %8, i64 %11
  br label %phar_get_pharfp.exit

phar_get_pharfp.exit:                             ; preds = %5, %7
  %.0.in.i = phi ptr [ %12, %7 ], [ %6, %5 ]
  %.0.i = load ptr, ptr %.0.in.i, align 8
  %.not = icmp eq ptr %.0.i, null
  br i1 %.not, label %13, label %39

13:                                               ; preds = %phar_get_pharfp.exit
  %14 = load ptr, ptr %0, align 8
  %15 = tail call i32 @php_check_open_basedir(ptr noundef %14) #15
  %.not5 = icmp eq i32 %15, 0
  br i1 %.not5, label %16, label %39

16:                                               ; preds = %13
  %17 = load ptr, ptr %0, align 8
  %18 = tail call ptr @_php_stream_open_wrapper_ex(ptr noundef %17, ptr noundef nonnull @.str, i32 noundef 18, ptr noundef null, ptr noundef null) #15
  %19 = load i16, ptr %2, align 4
  %20 = and i16 %19, 256
  %.not.i7 = icmp eq i16 %20, 0
  br i1 %.not.i7, label %21, label %23

21:                                               ; preds = %16
  %22 = getelementptr inbounds i8, ptr %0, i64 256
  br label %phar_set_pharfp.exit

23:                                               ; preds = %16
  %24 = load ptr, ptr getelementptr inbounds (%struct._zend_phar_globals, ptr @phar_globals, i64 0, i32 2), align 8
  %25 = getelementptr inbounds i8, ptr %0, i64 320
  %26 = load i32, ptr %25, align 8
  %27 = zext i32 %26 to i64
  %28 = getelementptr inbounds %struct._phar_entry_fp, ptr %24, i64 %27
  br label %phar_set_pharfp.exit

phar_set_pharfp.exit:                             ; preds = %21, %23
  %.sink.i = phi ptr [ %28, %23 ], [ %22, %21 ]
  store ptr %18, ptr %.sink.i, align 8
  %29 = load i16, ptr %2, align 4
  %30 = and i16 %29, 256
  %.not.i8 = icmp eq i16 %30, 0
  br i1 %.not.i8, label %31, label %33

31:                                               ; preds = %phar_set_pharfp.exit
  %32 = getelementptr inbounds i8, ptr %0, i64 256
  br label %phar_get_pharfp.exit11

33:                                               ; preds = %phar_set_pharfp.exit
  %34 = load ptr, ptr getelementptr inbounds (%struct._zend_phar_globals, ptr @phar_globals, i64 0, i32 2), align 8
  %35 = getelementptr inbounds i8, ptr %0, i64 320
  %36 = load i32, ptr %35, align 8
  %37 = zext i32 %36 to i64
  %38 = getelementptr inbounds %struct._phar_entry_fp, ptr %34, i64 %37
  br label %phar_get_pharfp.exit11

phar_get_pharfp.exit11:                           ; preds = %31, %33
  %.0.in.i9 = phi ptr [ %38, %33 ], [ %32, %31 ]
  %.0.i10 = load ptr, ptr %.0.in.i9, align 8
  %.not6 = icmp eq ptr %.0.i10, null
  %. = sext i1 %.not6 to i32
  br label %39

39:                                               ; preds = %phar_get_pharfp.exit11, %13, %phar_get_pharfp.exit
  %.0 = phi i32 [ 0, %phar_get_pharfp.exit ], [ -1, %13 ], [ %., %phar_get_pharfp.exit11 ]
  ret i32 %.0
}